
GccApplication1.elf:     file format elf32-avr

Sections:
Idx Name          Size      VMA       LMA       File off  Algn
  0 .data         00000000  00800100  00800100  0000015a  2**0
                  CONTENTS, ALLOC, LOAD, DATA
  1 .text         000000e6  00000000  00000000  00000074  2**1
                  CONTENTS, ALLOC, LOAD, READONLY, CODE
  2 .bss          00000002  00800100  00800100  0000015a  2**0
                  ALLOC
  3 .comment      00000030  00000000  00000000  0000015a  2**0
                  CONTENTS, READONLY
  4 .note.gnu.avr.deviceinfo 0000003c  00000000  00000000  0000018c  2**2
                  CONTENTS, READONLY
  5 .debug_aranges 00000030  00000000  00000000  000001c8  2**0
                  CONTENTS, READONLY, DEBUGGING
  6 .debug_info   000006c7  00000000  00000000  000001f8  2**0
                  CONTENTS, READONLY, DEBUGGING
  7 .debug_abbrev 00000644  00000000  00000000  000008bf  2**0
                  CONTENTS, READONLY, DEBUGGING
  8 .debug_line   0000022d  00000000  00000000  00000f03  2**0
                  CONTENTS, READONLY, DEBUGGING
  9 .debug_frame  00000050  00000000  00000000  00001130  2**2
                  CONTENTS, READONLY, DEBUGGING
 10 .debug_str    00000369  00000000  00000000  00001180  2**0
                  CONTENTS, READONLY, DEBUGGING
 11 .debug_loc    0000002f  00000000  00000000  000014e9  2**0
                  CONTENTS, READONLY, DEBUGGING
 12 .debug_ranges 00000020  00000000  00000000  00001518  2**0
                  CONTENTS, READONLY, DEBUGGING

Disassembly of section .text:

00000000 <__vectors>:
   0:	0c 94 34 00 	jmp	0x68	; 0x68 <__ctors_end>
   4:	0c 94 67 00 	jmp	0xce	; 0xce <__vector_1>
   8:	0c 94 46 00 	jmp	0x8c	; 0x8c <__bad_interrupt>
   c:	0c 94 46 00 	jmp	0x8c	; 0x8c <__bad_interrupt>
  10:	0c 94 46 00 	jmp	0x8c	; 0x8c <__bad_interrupt>
  14:	0c 94 46 00 	jmp	0x8c	; 0x8c <__bad_interrupt>
  18:	0c 94 46 00 	jmp	0x8c	; 0x8c <__bad_interrupt>
  1c:	0c 94 46 00 	jmp	0x8c	; 0x8c <__bad_interrupt>
  20:	0c 94 46 00 	jmp	0x8c	; 0x8c <__bad_interrupt>
  24:	0c 94 46 00 	jmp	0x8c	; 0x8c <__bad_interrupt>
  28:	0c 94 46 00 	jmp	0x8c	; 0x8c <__bad_interrupt>
  2c:	0c 94 46 00 	jmp	0x8c	; 0x8c <__bad_interrupt>
  30:	0c 94 46 00 	jmp	0x8c	; 0x8c <__bad_interrupt>
  34:	0c 94 46 00 	jmp	0x8c	; 0x8c <__bad_interrupt>
  38:	0c 94 46 00 	jmp	0x8c	; 0x8c <__bad_interrupt>
  3c:	0c 94 46 00 	jmp	0x8c	; 0x8c <__bad_interrupt>
  40:	0c 94 46 00 	jmp	0x8c	; 0x8c <__bad_interrupt>
  44:	0c 94 46 00 	jmp	0x8c	; 0x8c <__bad_interrupt>
  48:	0c 94 46 00 	jmp	0x8c	; 0x8c <__bad_interrupt>
  4c:	0c 94 46 00 	jmp	0x8c	; 0x8c <__bad_interrupt>
  50:	0c 94 46 00 	jmp	0x8c	; 0x8c <__bad_interrupt>
  54:	0c 94 46 00 	jmp	0x8c	; 0x8c <__bad_interrupt>
  58:	0c 94 46 00 	jmp	0x8c	; 0x8c <__bad_interrupt>
  5c:	0c 94 46 00 	jmp	0x8c	; 0x8c <__bad_interrupt>
  60:	0c 94 46 00 	jmp	0x8c	; 0x8c <__bad_interrupt>
  64:	0c 94 46 00 	jmp	0x8c	; 0x8c <__bad_interrupt>

00000068 <__ctors_end>:
  68:	11 24       	eor	r1, r1
  6a:	1f be       	out	0x3f, r1	; 63
  6c:	cf ef       	ldi	r28, 0xFF	; 255
  6e:	d8 e0       	ldi	r29, 0x08	; 8
  70:	de bf       	out	0x3e, r29	; 62
  72:	cd bf       	out	0x3d, r28	; 61

00000074 <__do_clear_bss>:
  74:	21 e0       	ldi	r18, 0x01	; 1
  76:	a0 e0       	ldi	r26, 0x00	; 0
  78:	b1 e0       	ldi	r27, 0x01	; 1
  7a:	01 c0       	rjmp	.+2      	; 0x7e <.do_clear_bss_start>

0000007c <.do_clear_bss_loop>:
  7c:	1d 92       	st	X+, r1

0000007e <.do_clear_bss_start>:
  7e:	a2 30       	cpi	r26, 0x02	; 2
  80:	b2 07       	cpc	r27, r18
  82:	e1 f7       	brne	.-8      	; 0x7c <.do_clear_bss_loop>
  84:	0e 94 4f 00 	call	0x9e	; 0x9e <main>
  88:	0c 94 71 00 	jmp	0xe2	; 0xe2 <_exit>

0000008c <__bad_interrupt>:
  8c:	0c 94 00 00 	jmp	0	; 0x0 <__vectors>

00000090 <setup_adc>:

int clear;

void setup_adc()
{
	ADCSRA = (1<<ADEN) | (1<<ADPS2) | (1<<ADPS1) | (1<<ADPS0); // enabling ADEN and prescaler setting to 128 div, ADC is the analog to digital converter
  90:	87 e8       	ldi	r24, 0x87	; 135
  92:	80 93 7a 00 	sts	0x007A, r24	; 0x80007a <__TEXT_REGION_LENGTH__+0x7f807a>
	ADMUX = (1<<REFS0) | (0<<REFS1); // setting ADMUX for Avcc with external capacitor
  96:	80 e4       	ldi	r24, 0x40	; 64
  98:	80 93 7c 00 	sts	0x007C, r24	; 0x80007c <__TEXT_REGION_LENGTH__+0x7f807c>
  9c:	08 95       	ret

0000009e <main>:
}

int main(void)
{
	DDRD = 0xFF;
  9e:	8f ef       	ldi	r24, 0xFF	; 255
  a0:	8a b9       	out	0x0a, r24	; 10
	setup_adc();
  a2:	0e 94 48 00 	call	0x90	; 0x90 <setup_adc>
	
	
	
	while (1) {
		ADCSRA |= (1<<ADSC); // enabling ADSC 
  a6:	ea e7       	ldi	r30, 0x7A	; 122
  a8:	f0 e0       	ldi	r31, 0x00	; 0
  aa:	80 81       	ld	r24, Z
  ac:	80 64       	ori	r24, 0x40	; 64
  ae:	80 83       	st	Z, r24
		while(ADCSRA & (1<<ADSC)); // checking loop until the value is zero
  b0:	80 91 7a 00 	lds	r24, 0x007A	; 0x80007a <__TEXT_REGION_LENGTH__+0x7f807a>
  b4:	86 fd       	sbrc	r24, 6
  b6:	fc cf       	rjmp	.-8      	; 0xb0 <main+0x12>
		PORTD = ADCL; // giving output acc to change
  b8:	80 91 78 00 	lds	r24, 0x0078	; 0x800078 <__TEXT_REGION_LENGTH__+0x7f8078>
  bc:	8b b9       	out	0x0b, r24	; 11
		clear = ADCH;  // clearing other value and deleting it to move forward
  be:	80 91 79 00 	lds	r24, 0x0079	; 0x800079 <__TEXT_REGION_LENGTH__+0x7f8079>
  c2:	90 e0       	ldi	r25, 0x00	; 0
  c4:	90 93 01 01 	sts	0x0101, r25	; 0x800101 <__DATA_REGION_ORIGIN__+0x1>
  c8:	80 93 00 01 	sts	0x0100, r24	; 0x800100 <__DATA_REGION_ORIGIN__>
	}
  cc:	ec cf       	rjmp	.-40     	; 0xa6 <main+0x8>

000000ce <__vector_1>:
}

ISR(INT0_vect)
{
  ce:	1f 92       	push	r1
  d0:	0f 92       	push	r0
  d2:	0f b6       	in	r0, 0x3f	; 63
  d4:	0f 92       	push	r0
  d6:	11 24       	eor	r1, r1
	
}
  d8:	0f 90       	pop	r0
  da:	0f be       	out	0x3f, r0	; 63
  dc:	0f 90       	pop	r0
  de:	1f 90       	pop	r1
  e0:	18 95       	reti

000000e2 <_exit>:
  e2:	f8 94       	cli

000000e4 <__stop_program>:
  e4:	ff cf       	rjmp	.-2      	; 0xe4 <__stop_program>
